; Function Attrs: nounwind uwtable
define noalias nonnull ptr @lean_mk_io_error_inappropriate_type(i32 noundef %0, ptr noundef %1) local_unnamed_addr #0 {
  tail call void @lean_inc_heartbeat() #4
  %3 = tail call noalias ptr @mi_malloc_small(i64 noundef 32) #4
  %4 = icmp eq ptr %3, null
  br i1 %4, label %5, label %lean_alloc_ctor.exit

5:                                                ; preds = %2
  tail call void @lean_internal_panic_out_of_memory() #5
  unreachable

lean_alloc_ctor.exit:                             ; preds = %2
  %6 = getelementptr inbounds nuw i8, ptr %3, i64 4
  %7 = getelementptr inbounds nuw i8, ptr %3, i64 24
  store i64 0, ptr %7, align 8, !tbaa !11
  store i32 1, ptr %3, align 4, !tbaa !4
  store i32 251789344, ptr %6, align 4
  %8 = getelementptr inbounds nuw i8, ptr %3, i64 8
  store ptr inttoptr (i64 1 to ptr), ptr %8, align 8, !tbaa !9
  %9 = getelementptr inbounds nuw i8, ptr %3, i64 16
  store ptr %1, ptr %9, align 8, !tbaa !9
  store i32 %0, ptr %7, align 4, !tbaa !13
  ret ptr %3
}